; Function Attrs: mustprogress uwtable
define hidden noundef zeroext i1 @_ZN10smt_logics13logic_has_strERK6symbol(ptr noundef nonnull align 8 dereferenceable(8) %0) local_unnamed_addr #3 align 2 {
  %2 = tail call noundef zeroext i1 @_ZeqRK6symbolPKc(ptr noundef nonnull align 8 dereferenceable(8) %0, ptr noundef nonnull @.str.13)
  br i1 %2, label %9, label %3

3:                                                ; preds = %1
  %4 = tail call noundef zeroext i1 @_ZeqRK6symbolPKc(ptr noundef nonnull align 8 dereferenceable(8) %0, ptr noundef nonnull @.str.26)
  br i1 %4, label %9, label %5

5:                                                ; preds = %3
  %6 = tail call noundef zeroext i1 @_ZeqRK6symbolPKc(ptr noundef nonnull align 8 dereferenceable(8) %0, ptr noundef nonnull @.str.27)
  br i1 %6, label %9, label %7

7:                                                ; preds = %5
  %8 = tail call noundef zeroext i1 @_ZeqRK6symbolPKc(ptr noundef nonnull align 8 dereferenceable(8) %0, ptr noundef nonnull @.str.31)
  br label %9

9:                                                ; preds = %7, %5, %3, %1
  %10 = phi i1 [ true, %5 ], [ true, %3 ], [ true, %1 ], [ %8, %7 ]
  ret i1 %10
}